; Function Attrs: mustprogress nofree norecurse nosync nounwind willreturn memory(readwrite, inaccessiblemem: none) uwtable
define internal range(i32 -25, 1) i32 @rd_ioctl(ptr noundef readonly captures(none) %0, i32 noundef %1, i64 noundef %2) #5 {
  %4 = icmp eq i32 %1, 1281
  %5 = icmp ne i64 %2, 0
  %or.cond = and i1 %4, %5
  br i1 %or.cond, label %6, label %12

6:                                                ; preds = %3
  %7 = inttoptr i64 %2 to ptr
  %8 = getelementptr inbounds nuw i8, ptr %0, i64 48
  %9 = load ptr, ptr %8, align 8
  %10 = getelementptr inbounds nuw i8, ptr %9, i64 8
  %11 = load ptr, ptr %10, align 8
  store ptr %11, ptr %7, align 8
  br label %12

12:                                               ; preds = %3, %6
  %.0 = phi i32 [ 0, %6 ], [ -25, %3 ]
  ret i32 %.0
}